target datalayout = "e-m:e-p270:32:32-p271:32:32-p272:64:64-i64:64-i128:128-f80:128-n8:16:32:64-S128"
target triple = "x86_64-pc-linux-gnu"

%struct.evp_pkey_method_st = type { i32, i32, ptr, ptr, ptr, ptr, ptr, ptr, ptr, ptr, ptr, ptr, ptr, ptr, ptr, ptr, ptr, ptr, ptr, ptr, ptr, ptr, ptr, ptr, ptr, ptr, ptr, ptr, ptr, ptr, ptr, ptr, ptr }

@app_pkey_methods = internal global ptr null, align 8

; Function Attrs: inlinehint nounwind uwtable
define internal ptr @sk_EVP_PKEY_METHOD_value(ptr noundef %0, i32 noundef %1) #5 {
  %3 = alloca ptr, align 8
  %4 = alloca i32, align 4
  store ptr %0, ptr %3, align 8, !tbaa !13
  store i32 %1, ptr %4, align 4, !tbaa !3
  %5 = load ptr, ptr %3, align 8, !tbaa !13
  %6 = load i32, ptr %4, align 4, !tbaa !3
  %7 = call ptr @OPENSSL_sk_value(ptr noundef %5, i32 noundef %6)
  ret ptr %7
}

; Function Attrs: inlinehint nounwind uwtable
define internal i32 @sk_EVP_PKEY_METHOD_find(ptr noundef %0, ptr noundef %1) #5 {
  %3 = alloca ptr, align 8
  %4 = alloca ptr, align 8
  store ptr %0, ptr %3, align 8, !tbaa !13
  store ptr %1, ptr %4, align 8, !tbaa !7
  %5 = load ptr, ptr %3, align 8, !tbaa !13
  %6 = load ptr, ptr %4, align 8, !tbaa !7
  %7 = call i32 @OPENSSL_sk_find(ptr noundef %5, ptr noundef %6)
  ret i32 %7
}

; Function Attrs: nounwind uwtable
define internal ptr @OBJ_bsearch_pmeth_func(ptr noundef %0, ptr noundef %1, i32 noundef %2) #0 {
  %4 = alloca ptr, align 8
  %5 = alloca ptr, align 8
  %6 = alloca i32, align 4
  store ptr %0, ptr %4, align 8, !tbaa !15
  store ptr %1, ptr %5, align 8, !tbaa !12
  store i32 %2, ptr %6, align 4, !tbaa !3
  %7 = load ptr, ptr %4, align 8, !tbaa !15
  %8 = load ptr, ptr %5, align 8, !tbaa !12
  %9 = load i32, ptr %6, align 4, !tbaa !3
  %10 = call ptr @OBJ_bsearch_(ptr noundef %7, ptr noundef %8, i32 noundef %9, i32 noundef 8, ptr noundef @pmeth_func_cmp_BSEARCH_CMP_FN)
  ret ptr %10
}

; Function Attrs: nounwind uwtable
define internal ptr @evp_pkey_meth_find_added_by_application(i32 noundef %0) #0 {
  %2 = alloca ptr, align 8
  %3 = alloca i32, align 4
  %4 = alloca i32, align 4
  %5 = alloca %struct.evp_pkey_method_st, align 8
  %6 = alloca i32, align 4
  store i32 %0, ptr %3, align 4, !tbaa !3
  %7 = load ptr, ptr @app_pkey_methods, align 8, !tbaa !13
  %8 = icmp ne ptr %7, null
  br i1 %8, label %9, label %24

9:                                                ; preds = %1
  call void @llvm.lifetime.start.p0(i64 4, ptr %4) #8
  call void @llvm.lifetime.start.p0(i64 256, ptr %5) #8
  %10 = load i32, ptr %3, align 4, !tbaa !3
  %11 = getelementptr inbounds nuw %struct.evp_pkey_method_st, ptr %5, i32 0, i32 0
  store i32 %10, ptr %11, align 8, !tbaa !10
  %12 = load ptr, ptr @app_pkey_methods, align 8, !tbaa !13
  %13 = call i32 @sk_EVP_PKEY_METHOD_find(ptr noundef %12, ptr noundef %5)
  store i32 %13, ptr %4, align 4, !tbaa !3
  %14 = load i32, ptr %4, align 4, !tbaa !3
  %15 = icmp sge i32 %14, 0
  br i1 %15, label %16, label %20

16:                                               ; preds = %9
  %17 = load ptr, ptr @app_pkey_methods, align 8, !tbaa !13
  %18 = load i32, ptr %4, align 4, !tbaa !3
  %19 = call ptr @sk_EVP_PKEY_METHOD_value(ptr noundef %17, i32 noundef %18)
  store ptr %19, ptr %2, align 8
  store i32 1, ptr %6, align 4
  br label %21

20:                                               ; preds = %9
  store i32 0, ptr %6, align 4
  br label %21

21:                                               ; preds = %20, %16
  call void @llvm.lifetime.end.p0(i64 256, ptr %5) #8
  call void @llvm.lifetime.end.p0(i64 4, ptr %4) #8
  %22 = load i32, ptr %6, align 4
  switch i32 %22, label %27 [
    i32 0, label %23
    i32 1, label %25
  ]

23:                                               ; preds = %21
  br label %24

24:                                               ; preds = %23, %1
  store ptr null, ptr %2, align 8
  br label %25

25:                                               ; preds = %24, %21
  %26 = load ptr, ptr %2, align 8
  ret ptr %26

27:                                               ; preds = %21
  unreachable
}

; Function Attrs: nounwind uwtable
define ptr @EVP_PKEY_meth_find(i32 noundef %0) #0 {
  %2 = alloca ptr, align 8
  %3 = alloca i32, align 4
  %4 = alloca ptr, align 8
  %5 = alloca %struct.evp_pkey_method_st, align 8
  %6 = alloca ptr, align 8
  %7 = alloca i32, align 4
  store i32 %0, ptr %3, align 4, !tbaa !3
  call void @llvm.lifetime.start.p0(i64 8, ptr %4) #8
  call void @llvm.lifetime.start.p0(i64 256, ptr %5) #8
  call void @llvm.lifetime.start.p0(i64 8, ptr %6) #8
  %8 = load i32, ptr %3, align 4, !tbaa !3
  %9 = call ptr @evp_pkey_meth_find_added_by_application(i32 noundef %8)
  store ptr %9, ptr %6, align 8, !tbaa !7
  %10 = icmp ne ptr %9, null
  br i1 %10, label %11, label %13

11:                                               ; preds = %1
  %12 = load ptr, ptr %6, align 8, !tbaa !7
  store ptr %12, ptr %2, align 8
  store i32 1, ptr %7, align 4
  br label %28

13:                                               ; preds = %1
  %14 = load i32, ptr %3, align 4, !tbaa !3
  %15 = getelementptr inbounds nuw %struct.evp_pkey_method_st, ptr %5, i32 0, i32 0
  store i32 %14, ptr %15, align 8, !tbaa !10
  store ptr %5, ptr %6, align 8, !tbaa !7
  %16 = call ptr @OBJ_bsearch_pmeth_func(ptr noundef %6, ptr noundef @standard_methods, i32 noundef 10)
  store ptr %16, ptr %4, align 8, !tbaa !12
  %17 = load ptr, ptr %4, align 8, !tbaa !12
  %18 = icmp eq ptr %17, null
  br i1 %18, label %23, label %19

19:                                               ; preds = %13
  %20 = load ptr, ptr %4, align 8, !tbaa !12
  %21 = load ptr, ptr %20, align 8, !tbaa !12
  %22 = icmp eq ptr %21, null
  br i1 %22, label %23, label %24

23:                                               ; preds = %19, %13
  store ptr null, ptr %2, align 8
  store i32 1, ptr %7, align 4
  br label %28

24:                                               ; preds = %19
  %25 = load ptr, ptr %4, align 8, !tbaa !12
  %26 = load ptr, ptr %25, align 8, !tbaa !12
  %27 = call ptr %26()
  store ptr %27, ptr %2, align 8
  store i32 1, ptr %7, align 4
  br label %28

28:                                               ; preds = %24, %23, %11
  call void @llvm.lifetime.end.p0(i64 8, ptr %6) #8
  call void @llvm.lifetime.end.p0(i64 256, ptr %5) #8
  call void @llvm.lifetime.end.p0(i64 8, ptr %4) #8
  %29 = load ptr, ptr %2, align 8
  ret ptr %29
}