; Function Attrs: nounwind uwtable
define ptr @EVP_PKEY_meth_find(i32 noundef %0) local_unnamed_addr #0 {
  %2 = alloca %struct.evp_pkey_method_st, align 8
  %3 = alloca %struct.evp_pkey_method_st, align 8
  %4 = alloca ptr, align 8
  call void @llvm.lifetime.start.p0(i64 256, ptr nonnull %3) #10
  call void @llvm.lifetime.start.p0(i64 8, ptr nonnull %4) #10
  %5 = load ptr, ptr @app_pkey_methods, align 8, !tbaa !3
  %.not.i = icmp eq ptr %5, null
  br i1 %.not.i, label %evp_pkey_meth_find_added_by_application.exit.thread, label %6

6:                                                ; preds = %1
  call void @llvm.lifetime.start.p0(i64 256, ptr nonnull %2) #10
  store i32 %0, ptr %2, align 8, !tbaa !8
  %7 = call i32 @OPENSSL_sk_find(ptr noundef nonnull %5, ptr noundef nonnull %2) #10
  %8 = icmp sgt i32 %7, -1
  br i1 %8, label %evp_pkey_meth_find_added_by_application.exit, label %evp_pkey_meth_find_added_by_application.exit.thread10

evp_pkey_meth_find_added_by_application.exit.thread10: ; preds = %6
  call void @llvm.lifetime.end.p0(i64 256, ptr nonnull %2) #10
  br label %evp_pkey_meth_find_added_by_application.exit.thread

evp_pkey_meth_find_added_by_application.exit:     ; preds = %6
  %9 = load ptr, ptr @app_pkey_methods, align 8, !tbaa !3
  %10 = call ptr @OPENSSL_sk_value(ptr noundef %9, i32 noundef %7) #10
  call void @llvm.lifetime.end.p0(i64 256, ptr nonnull %2) #10
  %.not = icmp eq ptr %10, null
  br i1 %.not, label %evp_pkey_meth_find_added_by_application.exit.thread, label %18

evp_pkey_meth_find_added_by_application.exit.thread: ; preds = %1, %evp_pkey_meth_find_added_by_application.exit.thread10, %evp_pkey_meth_find_added_by_application.exit
  store i32 %0, ptr %3, align 8, !tbaa !8
  store ptr %3, ptr %4, align 8, !tbaa !11
  %11 = call ptr @OBJ_bsearch_(ptr noundef nonnull %4, ptr noundef nonnull @standard_methods, i32 noundef 10, i32 noundef 8, ptr noundef nonnull @pmeth_func_cmp_BSEARCH_CMP_FN) #10
  %12 = icmp eq ptr %11, null
  br i1 %12, label %18, label %13

13:                                               ; preds = %evp_pkey_meth_find_added_by_application.exit.thread
  %14 = load ptr, ptr %11, align 8, !tbaa !13
  %15 = icmp eq ptr %14, null
  br i1 %15, label %18, label %16

16:                                               ; preds = %13
  %17 = call ptr %14() #10
  br label %18

18:                                               ; preds = %evp_pkey_meth_find_added_by_application.exit.thread, %13, %evp_pkey_meth_find_added_by_application.exit, %16
  %.0 = phi ptr [ %17, %16 ], [ %10, %evp_pkey_meth_find_added_by_application.exit ], [ null, %13 ], [ null, %evp_pkey_meth_find_added_by_application.exit.thread ]
  call void @llvm.lifetime.end.p0(i64 8, ptr nonnull %4) #10
  call void @llvm.lifetime.end.p0(i64 256, ptr nonnull %3) #10
  ret ptr %.0
}